; Function Attrs: nounwind uwtable
define dso_local ptr @connectionTypeUnix() local_unnamed_addr #0 {
  %1 = load ptr, ptr @connectionTypeUnix.ct_unix, align 8, !tbaa !10
  %.not = icmp eq ptr %1, null
  br i1 %.not, label %.preheader, label %13

2:                                                ; preds = %5
  %indvars.iv.next.i = add nuw nsw i64 %indvars.iv.i, 1
  %exitcond.not.i = icmp eq i64 %indvars.iv.next.i, 8
  br i1 %exitcond.not.i, label %9, label %.preheader, !llvm.loop !45

.preheader:                                       ; preds = %0, %2
  %indvars.iv.i = phi i64 [ %indvars.iv.next.i, %2 ], [ 0, %0 ]
  %3 = getelementptr inbounds nuw [8 x ptr], ptr @connTypes, i64 0, i64 %indvars.iv.i
  %4 = load ptr, ptr %3, align 8, !tbaa !10
  %.not.i = icmp eq ptr %4, null
  br i1 %.not.i, label %9, label %5

5:                                                ; preds = %.preheader
  %6 = load ptr, ptr %4, align 8, !tbaa !5
  %7 = tail call ptr %6(ptr noundef null) #4
  %8 = tail call i32 @strcasecmp(ptr noundef nonnull @.str.9, ptr noundef %7) #5
  %.not12.i = icmp eq i32 %8, 0
  br i1 %.not12.i, label %connectionByType.exit, label %2

9:                                                ; preds = %.preheader, %2
  %10 = load i32, ptr getelementptr inbounds nuw (i8, ptr @server, i64 6288), align 8, !tbaa !12
  %11 = icmp sgt i32 %10, 3
  br i1 %11, label %connectionByType.exit, label %12

12:                                               ; preds = %9
  tail call void (i32, ptr, ...) @_serverLog(i32 noundef 3, ptr noundef nonnull @.str.5, ptr noundef nonnull @.str.9) #4
  br label %connectionByType.exit

connectionByType.exit:                            ; preds = %5, %9, %12
  %.1.i = phi ptr [ null, %9 ], [ null, %12 ], [ %4, %5 ]
  store ptr %.1.i, ptr @connectionTypeUnix.ct_unix, align 8, !tbaa !10
  br label %13

13:                                               ; preds = %0, %connectionByType.exit
  %.0 = phi ptr [ %.1.i, %connectionByType.exit ], [ %1, %0 ]
  ret ptr %.0
}